; Function Attrs: nounwind uwtable
define internal ptr @method_vectorcall_VARARGS(ptr noundef %0, ptr noundef %1, i64 noundef %2, ptr noundef %3) #0 {
  %5 = tail call align 8 ptr @llvm.threadlocal.address.p0(ptr align 8 @_Py_tss_tstate)
  %6 = load ptr, ptr %5, align 8, !tbaa !63
  %7 = and i64 %2, 9223372036854775807
  %8 = tail call fastcc i32 @method_check_args(ptr noundef %0, ptr noundef %1, i64 noundef %7, ptr noundef %3)
  %.not = icmp eq i32 %8, 0
  br i1 %.not, label %9, label %Py_DECREF.exit

9:                                                ; preds = %4
  %10 = getelementptr i8, ptr %1, i64 8
  %11 = add nsw i64 %7, -1
  %12 = tail call ptr @_PyTuple_FromArray(ptr noundef %10, i64 noundef %11) #9
  %13 = icmp eq ptr %12, null
  br i1 %13, label %Py_DECREF.exit, label %14

14:                                               ; preds = %9
  %15 = getelementptr inbounds nuw i8, ptr %6, i64 52
  %16 = load i32, ptr %15, align 4, !tbaa !144
  %17 = add i32 %16, -1
  store i32 %17, ptr %15, align 4, !tbaa !144
  %.not.i.i = icmp sgt i32 %16, -1
  br i1 %.not.i.i, label %method_enter_call.exit, label %_Py_EnterRecursiveCallTstate.exit.i

_Py_EnterRecursiveCallTstate.exit.i:              ; preds = %14
  %18 = tail call i32 @_Py_CheckRecursiveCall(ptr noundef nonnull %6, ptr noundef nonnull @.str.42) #9
  %.not4.i = icmp eq i32 %18, 0
  br i1 %.not4.i, label %method_enter_call.exit, label %method_enter_call.exit.thread

method_enter_call.exit:                           ; preds = %14, %_Py_EnterRecursiveCallTstate.exit.i
  %19 = getelementptr inbounds nuw i8, ptr %0, i64 40
  %20 = load ptr, ptr %19, align 8, !tbaa !31
  %21 = getelementptr inbounds nuw i8, ptr %20, i64 8
  %22 = load ptr, ptr %21, align 8, !tbaa !145
  %23 = icmp eq ptr %22, null
  br i1 %23, label %method_enter_call.exit.thread, label %29

method_enter_call.exit.thread:                    ; preds = %_Py_EnterRecursiveCallTstate.exit.i, %method_enter_call.exit
  %24 = load i32, ptr %12, align 8, !tbaa !16
  %.not.i = icmp sgt i32 %24, -1
  br i1 %.not.i, label %25, label %Py_DECREF.exit

25:                                               ; preds = %method_enter_call.exit.thread
  %26 = add nsw i32 %24, -1
  store i32 %26, ptr %12, align 8, !tbaa !16
  %27 = icmp eq i32 %26, 0
  br i1 %27, label %28, label %Py_DECREF.exit

28:                                               ; preds = %25
  tail call void @_Py_Dealloc(ptr noundef nonnull %12) #9
  br label %Py_DECREF.exit

29:                                               ; preds = %method_enter_call.exit
  %30 = load ptr, ptr %1, align 8, !tbaa !30
  %31 = tail call ptr %22(ptr noundef %30, ptr noundef nonnull %12) #9
  %32 = load i32, ptr %12, align 8, !tbaa !16
  %.not.i20 = icmp sgt i32 %32, -1
  br i1 %.not.i20, label %33, label %Py_DECREF.exit21

33:                                               ; preds = %29
  %34 = add nsw i32 %32, -1
  store i32 %34, ptr %12, align 8, !tbaa !16
  %35 = icmp eq i32 %34, 0
  br i1 %35, label %36, label %Py_DECREF.exit21

36:                                               ; preds = %33
  tail call void @_Py_Dealloc(ptr noundef nonnull %12) #9
  br label %Py_DECREF.exit21

Py_DECREF.exit21:                                 ; preds = %29, %33, %36
  %37 = load i32, ptr %15, align 4, !tbaa !144
  %38 = add i32 %37, 1
  store i32 %38, ptr %15, align 4, !tbaa !144
  br label %Py_DECREF.exit

Py_DECREF.exit:                                   ; preds = %28, %25, %method_enter_call.exit.thread, %9, %Py_DECREF.exit21, %4
  %.0 = phi ptr [ null, %4 ], [ null, %9 ], [ %31, %Py_DECREF.exit21 ], [ null, %method_enter_call.exit.thread ], [ null, %25 ], [ null, %28 ]
  ret ptr %.0
}